; Function Attrs: mustprogress nounwind willreturn uwtable
define internal noundef i32 @rd_unlink(ptr noundef readonly captures(none) %0) #6 {
  %2 = getelementptr inbounds nuw i8, ptr %0, i64 48
  %3 = load ptr, ptr %2, align 8
  %4 = getelementptr inbounds nuw i8, ptr %3, i64 7
  %5 = load i8, ptr %4, align 1
  %6 = or i8 %5, 4
  store i8 %6, ptr %4, align 1
  %7 = getelementptr inbounds nuw i8, ptr %3, i64 6
  %8 = load i8, ptr %7, align 2
  %9 = icmp eq i8 %8, 0
  br i1 %9, label %10, label %15

10:                                               ; preds = %1
  %11 = and i8 %5, 3
  %.not4.i = icmp eq i8 %11, 0
  br i1 %.not4.i, label %rd_destroy.exit, label %12

12:                                               ; preds = %10
  %13 = getelementptr inbounds nuw i8, ptr %3, i64 8
  %14 = load ptr, ptr %13, align 8
  tail call void @free(ptr noundef %14)
  br label %rd_destroy.exit

rd_destroy.exit:                                  ; preds = %10, %12
  tail call void @free(ptr noundef nonnull %3)
  br label %15

15:                                               ; preds = %rd_destroy.exit, %1
  ret i32 0
}